; Function Attrs: mustprogress uwtable
define hidden void @_ZN4cvc58internal19SygusTermEnumerator10getCurrentEv(ptr dead_on_unwind noalias writable sret(%"class.cvc5::internal::NodeTemplate") align 8 %0, ptr noundef nonnull readonly align 8 captures(none) dereferenceable(16) %1) local_unnamed_addr #3 align 2 personality ptr @__gxx_personality_v0 {
  %3 = alloca %"class.cvc5::internal::NodeTemplate", align 8
  %4 = alloca %"class.cvc5::internal::NodeTemplate", align 8
  call void @llvm.lifetime.start.p0(i64 8, ptr nonnull %3) #16
  %5 = load ptr, ptr %1, align 8, !tbaa !3
  %6 = load ptr, ptr %5, align 8, !tbaa !23
  %7 = getelementptr inbounds nuw i8, ptr %6, i64 40
  %8 = load ptr, ptr %7, align 8
  call void %8(ptr dead_on_unwind nonnull writable sret(%"class.cvc5::internal::NodeTemplate") align 8 %3, ptr noundef nonnull align 8 dereferenceable(344) %5)
  %9 = load ptr, ptr %3, align 8, !tbaa !11
  %10 = load atomic i8, ptr @_ZGVZN4cvc58internal4expr9NodeValue4nullEvE6s_null acquire, align 8
  %11 = icmp eq i8 %10, 0
  br i1 %11, label %12, label %20, !prof !8

12:                                               ; preds = %2
  %13 = call i32 @__cxa_guard_acquire(ptr nonnull @_ZGVZN4cvc58internal4expr9NodeValue4nullEvE6s_null) #16
  %.not.i.i = icmp eq i32 %13, 0
  br i1 %.not.i.i, label %20, label %14

14:                                               ; preds = %12
  %15 = invoke noalias noundef nonnull dereferenceable(24) ptr @_Znwm(i64 noundef 24) #15
          to label %16 unwind label %18

16:                                               ; preds = %14
  store i64 1152920405095219200, ptr %15, align 8
  %17 = getelementptr inbounds nuw i8, ptr %15, i64 8
  call void @llvm.memset.p0.i64(ptr noundef nonnull align 8 dereferenceable(16) %17, i8 0, i64 16, i1 false)
  store ptr %15, ptr @_ZZN4cvc58internal4expr9NodeValue4nullEvE6s_null, align 8, !tbaa !9
  call void @__cxa_guard_release(ptr nonnull @_ZGVZN4cvc58internal4expr9NodeValue4nullEvE6s_null) #16
  br label %20

18:                                               ; preds = %14
  %19 = landingpad { ptr, i32 }
          cleanup
  call void @__cxa_guard_abort(ptr nonnull @_ZGVZN4cvc58internal4expr9NodeValue4nullEvE6s_null) #16
  br label %.body

20:                                               ; preds = %16, %12, %2
  %21 = load ptr, ptr @_ZZN4cvc58internal4expr9NodeValue4nullEvE6s_null, align 8, !tbaa !9
  %22 = icmp eq ptr %9, %21
  %23 = load ptr, ptr %3, align 8, !tbaa !11
  br i1 %22, label %24, label %41

24:                                               ; preds = %20
  store ptr %23, ptr %0, align 8, !tbaa !11
  %25 = load i64, ptr %23, align 8
  %26 = lshr i64 %25, 40
  %27 = trunc nuw nsw i64 %26 to i32
  %28 = and i32 %27, 1048575
  %29 = icmp samesign ult i32 %28, 1048574
  br i1 %29, label %30, label %35, !prof !21

30:                                               ; preds = %24
  %31 = add i64 %25, 1099511627776
  %32 = and i64 %31, 1152920405095219200
  %33 = and i64 %25, -1152920405095219201
  %34 = or disjoint i64 %32, %33
  store i64 %34, ptr %23, align 8
  br label %_ZN4cvc58internal12NodeTemplateILb1EEC2ERKS2_.exit

35:                                               ; preds = %24
  %36 = icmp eq i32 %28, 1048574
  br i1 %36, label %37, label %_ZN4cvc58internal12NodeTemplateILb1EEC2ERKS2_.exit, !prof !20

37:                                               ; preds = %35
  %38 = or i64 %25, 1152920405095219200
  store i64 %38, ptr %23, align 8
  invoke void @_ZN4cvc58internal4expr9NodeValue20markRefCountMaxedOutEv(ptr noundef nonnull align 8 dereferenceable(24) %23)
          to label %_ZN4cvc58internal12NodeTemplateILb1EEC2ERKS2_.exit unwind label %39

39:                                               ; preds = %54, %37
  %40 = landingpad { ptr, i32 }
          cleanup
  br label %.body

41:                                               ; preds = %20
  store ptr %23, ptr %4, align 8, !tbaa !11
  %42 = load i64, ptr %23, align 8
  %43 = lshr i64 %42, 40
  %44 = trunc nuw nsw i64 %43 to i32
  %45 = and i32 %44, 1048575
  %46 = icmp samesign ult i32 %45, 1048574
  br i1 %46, label %47, label %52, !prof !21

47:                                               ; preds = %41
  %48 = add i64 %42, 1099511627776
  %49 = and i64 %48, 1152920405095219200
  %50 = and i64 %42, -1152920405095219201
  %51 = or disjoint i64 %49, %50
  store i64 %51, ptr %23, align 8
  br label %_ZN4cvc58internal12NodeTemplateILb1EEC2ERKS2_.exit8

52:                                               ; preds = %41
  %53 = icmp eq i32 %45, 1048574
  br i1 %53, label %54, label %_ZN4cvc58internal12NodeTemplateILb1EEC2ERKS2_.exit8, !prof !20

54:                                               ; preds = %52
  %55 = or i64 %42, 1152920405095219200
  store i64 %55, ptr %23, align 8
  invoke void @_ZN4cvc58internal4expr9NodeValue20markRefCountMaxedOutEv(ptr noundef nonnull align 8 dereferenceable(24) %23)
          to label %_ZN4cvc58internal12NodeTemplateILb1EEC2ERKS2_.exit8 unwind label %39

_ZN4cvc58internal12NodeTemplateILb1EEC2ERKS2_.exit8: ; preds = %52, %47, %54
  invoke void @_ZN4cvc58internal6theory9datatypes5utils14sygusToBuiltinENS0_12NodeTemplateILb1EEEb(ptr dead_on_unwind writable sret(%"class.cvc5::internal::NodeTemplate") align 8 %0, ptr noundef nonnull %4, i1 noundef zeroext false)
          to label %56 unwind label %70

56:                                               ; preds = %_ZN4cvc58internal12NodeTemplateILb1EEC2ERKS2_.exit8
  %57 = load ptr, ptr %4, align 8, !tbaa !11
  %58 = load i64, ptr %57, align 8
  %59 = and i64 %58, 1152920405095219200
  %.not.i.i9 = icmp eq i64 %59, 1152920405095219200
  br i1 %.not.i.i9, label %_ZN4cvc58internal12NodeTemplateILb1EEC2ERKS2_.exit, label %60, !prof !20

60:                                               ; preds = %56
  %61 = add i64 %58, 1152920405095219200
  %62 = and i64 %61, 1152920405095219200
  %63 = and i64 %58, -1152920405095219201
  %64 = or disjoint i64 %62, %63
  store i64 %64, ptr %57, align 8
  %65 = icmp eq i64 %62, 0
  br i1 %65, label %66, label %_ZN4cvc58internal12NodeTemplateILb1EEC2ERKS2_.exit, !prof !20

66:                                               ; preds = %60
  invoke void @_ZN4cvc58internal4expr9NodeValue15markForDeletionEv(ptr noundef nonnull align 8 dereferenceable(24) %57)
          to label %_ZN4cvc58internal12NodeTemplateILb1EEC2ERKS2_.exit unwind label %67

67:                                               ; preds = %66
  %68 = landingpad { ptr, i32 }
          catch ptr null
  %69 = extractvalue { ptr, i32 } %68, 0
  call void @__clang_call_terminate(ptr %69) #17
  unreachable

70:                                               ; preds = %_ZN4cvc58internal12NodeTemplateILb1EEC2ERKS2_.exit8
  %71 = landingpad { ptr, i32 }
          cleanup
  call void @_ZN4cvc58internal12NodeTemplateILb1EED2Ev(ptr noundef nonnull align 8 dereferenceable(8) %4) #16
  br label %.body

_ZN4cvc58internal12NodeTemplateILb1EEC2ERKS2_.exit: ; preds = %66, %60, %56, %35, %30, %37
  %72 = load ptr, ptr %3, align 8, !tbaa !11
  %73 = load i64, ptr %72, align 8
  %74 = and i64 %73, 1152920405095219200
  %.not.i.i10 = icmp eq i64 %74, 1152920405095219200
  br i1 %.not.i.i10, label %_ZN4cvc58internal12NodeTemplateILb1EED2Ev.exit11, label %75, !prof !20

75:                                               ; preds = %_ZN4cvc58internal12NodeTemplateILb1EEC2ERKS2_.exit
  %76 = add i64 %73, 1152920405095219200
  %77 = and i64 %76, 1152920405095219200
  %78 = and i64 %73, -1152920405095219201
  %79 = or disjoint i64 %77, %78
  store i64 %79, ptr %72, align 8
  %80 = icmp eq i64 %77, 0
  br i1 %80, label %81, label %_ZN4cvc58internal12NodeTemplateILb1EED2Ev.exit11, !prof !20

81:                                               ; preds = %75
  invoke void @_ZN4cvc58internal4expr9NodeValue15markForDeletionEv(ptr noundef nonnull align 8 dereferenceable(24) %72)
          to label %_ZN4cvc58internal12NodeTemplateILb1EED2Ev.exit11 unwind label %82

82:                                               ; preds = %81
  %83 = landingpad { ptr, i32 }
          catch ptr null
  %84 = extractvalue { ptr, i32 } %83, 0
  call void @__clang_call_terminate(ptr %84) #17
  unreachable

_ZN4cvc58internal12NodeTemplateILb1EED2Ev.exit11: ; preds = %_ZN4cvc58internal12NodeTemplateILb1EEC2ERKS2_.exit, %75, %81
  call void @llvm.lifetime.end.p0(i64 8, ptr nonnull %3) #16
  ret void

.body:                                            ; preds = %39, %18, %70
  %.pn = phi { ptr, i32 } [ %71, %70 ], [ %40, %39 ], [ %19, %18 ]
  call void @_ZN4cvc58internal12NodeTemplateILb1EED2Ev(ptr noundef nonnull align 8 dereferenceable(8) %3) #16
  call void @llvm.lifetime.end.p0(i64 8, ptr nonnull %3) #16
  resume { ptr, i32 } %.pn
}